target datalayout = "e-m:e-p270:32:32-p271:32:32-p272:64:64-i64:64-i128:128-f80:128-n8:16:32:64-S128"
target triple = "x86_64-pc-linux-gnu"

%struct.H5O_loc_t = type { ptr, i64, i8 }
%struct.H5G_name_t = type { ptr, ptr, i32 }
%struct.H5G_loc_t = type { ptr, ptr }

@.str.3 = private unnamed_addr constant [100 x i8] c"generated/home/dtcxzyw/WorkSpace/Projects/compilers/llvm-opt-benchmark/bench/hdf5/hdf5/src/H5Gint.c\00", align 1
@H5E_SYM_g = external global i64, align 8
@H5E_NOTFOUND_g = external global i64, align 8
@.str.13 = private unnamed_addr constant [16 x i8] c"group not found\00", align 1
@H5E_CANTGET_g = external global i64, align 8
@H5E_CANTRELEASE_g = external global i64, align 8
@.str.17 = private unnamed_addr constant [20 x i8] c"can't free location\00", align 1
@.str.61 = private unnamed_addr constant [26 x i8] c"can't retrieve group info\00", align 1
@__func__.H5G__get_info_by_idx = private unnamed_addr constant [21 x i8] c"H5G__get_info_by_idx\00", align 1

; Function Attrs: nounwind uwtable
define i32 @H5G__get_info_by_idx(ptr noundef %0, ptr noundef %1, i32 noundef %2, i32 noundef %3, i64 noundef %4, ptr noundef %5) #0 {
  %7 = alloca ptr, align 8
  %8 = alloca ptr, align 8
  %9 = alloca i32, align 4
  %10 = alloca i32, align 4
  %11 = alloca i64, align 8
  %12 = alloca ptr, align 8
  %13 = alloca %struct.H5G_loc_t, align 8
  %14 = alloca %struct.H5G_name_t, align 8
  %15 = alloca %struct.H5O_loc_t, align 8
  %16 = alloca i8, align 1
  %17 = alloca i32, align 4
  %18 = alloca i8, align 1
  store ptr %0, ptr %7, align 8
  store ptr %1, ptr %8, align 8
  store i32 %2, ptr %9, align 4
  store i32 %3, ptr %10, align 4
  store i64 %4, ptr %11, align 8
  store ptr %5, ptr %12, align 8
  store i8 0, ptr %16, align 1
  store i32 0, ptr %17, align 4
  store i8 0, ptr %18, align 1
  %19 = getelementptr inbounds %struct.H5G_loc_t, ptr %13, i32 0, i32 0
  store ptr %15, ptr %19, align 8
  %20 = getelementptr inbounds %struct.H5G_loc_t, ptr %13, i32 0, i32 1
  store ptr %14, ptr %20, align 8
  %21 = call i32 @H5G_loc_reset(ptr noundef %13)
  %22 = load ptr, ptr %7, align 8
  %23 = load ptr, ptr %8, align 8
  %24 = load i32, ptr %9, align 4
  %25 = load i32, ptr %10, align 4
  %26 = load i64, ptr %11, align 8
  %27 = call i32 @H5G_loc_find_by_idx(ptr noundef %22, ptr noundef %23, i32 noundef %24, i32 noundef %25, i64 noundef %26, ptr noundef %13)
  %28 = icmp slt i32 %27, 0
  br i1 %28, label %29, label %44

29:                                               ; preds = %6
  br label %30

30:                                               ; preds = %29
  br label %31

31:                                               ; preds = %30
  br label %32

32:                                               ; preds = %31
  %33 = load i64, ptr @H5E_SYM_g, align 8
  %34 = load i64, ptr @H5E_NOTFOUND_g, align 8
  %35 = call i32 (ptr, ptr, i32, i64, i64, ptr, ...) @H5E_printf_stack(ptr noundef @.str.3, ptr noundef @__func__.H5G__get_info_by_idx, i32 noundef 1373, i64 noundef %33, i64 noundef %34, ptr noundef @.str.13)
  br label %36

36:                                               ; preds = %32
  store i8 1, ptr %18, align 1
  %37 = load i8, ptr %18, align 1
  %38 = trunc i8 %37 to i1
  %39 = zext i1 %38 to i8
  store i8 %39, ptr %18, align 1
  br label %40

40:                                               ; preds = %36
  br label %41

41:                                               ; preds = %40
  store i32 -1, ptr %17, align 4
  br label %66

42:                                               ; No predecessors!
  br label %43

43:                                               ; preds = %42
  br label %44

44:                                               ; preds = %43, %6
  store i8 1, ptr %16, align 1
  %45 = getelementptr inbounds %struct.H5G_loc_t, ptr %13, i32 0, i32 0
  %46 = load ptr, ptr %45, align 8
  %47 = load ptr, ptr %12, align 8
  %48 = call i32 @H5G__obj_info(ptr noundef %46, ptr noundef %47)
  %49 = icmp slt i32 %48, 0
  br i1 %49, label %50, label %65

50:                                               ; preds = %44
  br label %51

51:                                               ; preds = %50
  br label %52

52:                                               ; preds = %51
  br label %53

53:                                               ; preds = %52
  %54 = load i64, ptr @H5E_SYM_g, align 8
  %55 = load i64, ptr @H5E_CANTGET_g, align 8
  %56 = call i32 (ptr, ptr, i32, i64, i64, ptr, ...) @H5E_printf_stack(ptr noundef @.str.3, ptr noundef @__func__.H5G__get_info_by_idx, i32 noundef 1378, i64 noundef %54, i64 noundef %55, ptr noundef @.str.61)
  br label %57

57:                                               ; preds = %53
  store i8 1, ptr %18, align 1
  %58 = load i8, ptr %18, align 1
  %59 = trunc i8 %58 to i1
  %60 = zext i1 %59 to i8
  store i8 %60, ptr %18, align 1
  br label %61

61:                                               ; preds = %57
  br label %62

62:                                               ; preds = %61
  store i32 -1, ptr %17, align 4
  br label %66

63:                                               ; No predecessors!
  br label %64

64:                                               ; preds = %63
  br label %65

65:                                               ; preds = %64, %44
  br label %66

66:                                               ; preds = %65, %62, %41
  %67 = load i8, ptr %16, align 1
  %68 = trunc i8 %67 to i1
  br i1 %68, label %69, label %85

69:                                               ; preds = %66
  %70 = call i32 @H5G_loc_free(ptr noundef %13)
  %71 = icmp slt i32 %70, 0
  br i1 %71, label %72, label %85

72:                                               ; preds = %69
  br label %73

73:                                               ; preds = %72
  br label %74

74:                                               ; preds = %73
  br label %75

75:                                               ; preds = %74
  %76 = load i64, ptr @H5E_SYM_g, align 8
  %77 = load i64, ptr @H5E_CANTRELEASE_g, align 8
  %78 = call i32 (ptr, ptr, i32, i64, i64, ptr, ...) @H5E_printf_stack(ptr noundef @.str.3, ptr noundef @__func__.H5G__get_info_by_idx, i32 noundef 1383, i64 noundef %76, i64 noundef %77, ptr noundef @.str.17)
  br label %79

79:                                               ; preds = %75
  store i8 1, ptr %18, align 1
  %80 = load i8, ptr %18, align 1
  %81 = trunc i8 %80 to i1
  %82 = zext i1 %81 to i8
  store i8 %82, ptr %18, align 1
  br label %83

83:                                               ; preds = %79
  store i32 -1, ptr %17, align 4
  br label %84

84:                                               ; preds = %83
  br label %85

85:                                               ; preds = %84, %69, %66
  %86 = load i32, ptr %17, align 4
  ret i32 %86
}