; Function Attrs: nounwind uwtable
define range(i32 -1, 1) i32 @H5G__get_info_by_idx(ptr noundef %0, ptr noundef %1, i32 noundef %2, i32 noundef %3, i64 noundef %4, ptr noundef %5) local_unnamed_addr #0 {
  %7 = alloca %struct.H5G_loc_t, align 8
  %8 = alloca %struct.H5G_name_t, align 8
  %9 = alloca %struct.H5O_loc_t, align 8
  store ptr %9, ptr %7, align 8
  %10 = getelementptr inbounds i8, ptr %7, i64 8
  store ptr %8, ptr %10, align 8
  %11 = call i32 @H5G_loc_reset(ptr noundef nonnull %7) #10
  %12 = call i32 @H5G_loc_find_by_idx(ptr noundef %0, ptr noundef %1, i32 noundef %2, i32 noundef %3, i64 noundef %4, ptr noundef nonnull %7) #10
  %13 = icmp sgt i32 %12, -1
  br i1 %13, label %14, label %22

14:                                               ; preds = %6
  %15 = load ptr, ptr %7, align 8
  %16 = call i32 @H5G__obj_info(ptr noundef %15, ptr noundef %5) #10
  %17 = icmp slt i32 %16, 0
  br i1 %17, label %18, label %26

18:                                               ; preds = %14
  %19 = load i64, ptr @H5E_SYM_g, align 8
  %20 = load i64, ptr @H5E_CANTGET_g, align 8
  %21 = call i32 (ptr, ptr, i32, i64, i64, ptr, ...) @H5E_printf_stack(ptr noundef nonnull @.str.3, ptr noundef nonnull @__func__.H5G__get_info_by_idx, i32 noundef 1378, i64 noundef %19, i64 noundef %20, ptr noundef nonnull @.str.61) #10
  br label %26

22:                                               ; preds = %6
  %23 = load i64, ptr @H5E_SYM_g, align 8
  %24 = load i64, ptr @H5E_NOTFOUND_g, align 8
  %25 = call i32 (ptr, ptr, i32, i64, i64, ptr, ...) @H5E_printf_stack(ptr noundef nonnull @.str.3, ptr noundef nonnull @__func__.H5G__get_info_by_idx, i32 noundef 1373, i64 noundef %23, i64 noundef %24, ptr noundef nonnull @.str.13) #10
  br label %33

26:                                               ; preds = %14, %18
  %.0.ph = phi i32 [ 0, %14 ], [ -1, %18 ]
  %27 = call i32 @H5G_loc_free(ptr noundef nonnull %7) #10
  %28 = icmp slt i32 %27, 0
  br i1 %28, label %29, label %33

29:                                               ; preds = %26
  %30 = load i64, ptr @H5E_SYM_g, align 8
  %31 = load i64, ptr @H5E_CANTRELEASE_g, align 8
  %32 = call i32 (ptr, ptr, i32, i64, i64, ptr, ...) @H5E_printf_stack(ptr noundef nonnull @.str.3, ptr noundef nonnull @__func__.H5G__get_info_by_idx, i32 noundef 1383, i64 noundef %30, i64 noundef %31, ptr noundef nonnull @.str.17) #10
  br label %33

33:                                               ; preds = %22, %29, %26
  %.1 = phi i32 [ -1, %29 ], [ %.0.ph, %26 ], [ -1, %22 ]
  ret i32 %.1
}